
Task 7.2.elf:     file format elf32-littlearm

Sections:
Idx Name          Size      VMA       LMA       File off  Algn
  0 .isr_vector   00000194  08000000  08000000  00001000  2**0
                  CONTENTS, ALLOC, LOAD, READONLY, DATA
  1 .text         00000508  08000194  08000194  00001194  2**2
                  CONTENTS, ALLOC, LOAD, READONLY, CODE
  2 .rodata       00000000  0800069c  080006a4  000016a4  2**0
                  CONTENTS, ALLOC, LOAD, DATA
  3 .ARM.extab    00000000  0800069c  0800069c  000016a4  2**0
                  CONTENTS, READONLY
  4 .ARM          00000000  0800069c  0800069c  000016a4  2**0
                  CONTENTS, READONLY
  5 .preinit_array 00000000  0800069c  080006a4  000016a4  2**0
                  CONTENTS, ALLOC, LOAD, DATA
  6 .init_array   00000004  0800069c  0800069c  0000169c  2**2
                  CONTENTS, ALLOC, LOAD, READONLY, DATA
  7 .fini_array   00000004  080006a0  080006a0  000016a0  2**2
                  CONTENTS, ALLOC, LOAD, READONLY, DATA
  8 .data         00000000  20000000  20000000  000016a4  2**0
                  CONTENTS, ALLOC, LOAD, DATA
  9 .ccmram       00000000  10000000  10000000  000016a4  2**0
                  CONTENTS
 10 .bss          0000002c  20000000  20000000  00002000  2**2
                  ALLOC
 11 ._user_heap_stack 00000604  2000002c  2000002c  00002000  2**0
                  ALLOC
 12 .ARM.attributes 00000030  00000000  00000000  000016a4  2**0
                  CONTENTS, READONLY
 13 .debug_info   000017a8  00000000  00000000  000016d4  2**0
                  CONTENTS, READONLY, DEBUGGING, OCTETS
 14 .debug_abbrev 0000066b  00000000  00000000  00002e7c  2**0
                  CONTENTS, READONLY, DEBUGGING, OCTETS
 15 .debug_aranges 00000120  00000000  00000000  000034e8  2**3
                  CONTENTS, READONLY, DEBUGGING, OCTETS
 16 .debug_rnglists 000000c4  00000000  00000000  00003608  2**0
                  CONTENTS, READONLY, DEBUGGING, OCTETS
 17 .debug_macro  00014f5f  00000000  00000000  000036cc  2**0
                  CONTENTS, READONLY, DEBUGGING, OCTETS
 18 .debug_line   0000175b  00000000  00000000  0001862b  2**0
                  CONTENTS, READONLY, DEBUGGING, OCTETS
 19 .debug_str    000728e4  00000000  00000000  00019d86  2**0
                  CONTENTS, READONLY, DEBUGGING, OCTETS
 20 .comment      00000043  00000000  00000000  0008c66a  2**0
                  CONTENTS, READONLY
 21 .debug_frame  000002f0  00000000  00000000  0008c6b0  2**2
                  CONTENTS, READONLY, DEBUGGING, OCTETS
 22 .debug_line_str 00000071  00000000  00000000  0008c9a0  2**0
                  CONTENTS, READONLY, DEBUGGING, OCTETS

Disassembly of section .text:

08000194 <__do_global_dtors_aux>:
 8000194:	b510      	push	{r4, lr}
 8000196:	4c05      	ldr	r4, [pc, #20]	@ (80001ac <__do_global_dtors_aux+0x18>)
 8000198:	7823      	ldrb	r3, [r4, #0]
 800019a:	b933      	cbnz	r3, 80001aa <__do_global_dtors_aux+0x16>
 800019c:	4b04      	ldr	r3, [pc, #16]	@ (80001b0 <__do_global_dtors_aux+0x1c>)
 800019e:	b113      	cbz	r3, 80001a6 <__do_global_dtors_aux+0x12>
 80001a0:	4804      	ldr	r0, [pc, #16]	@ (80001b4 <__do_global_dtors_aux+0x20>)
 80001a2:	f3af 8000 	nop.w
 80001a6:	2301      	movs	r3, #1
 80001a8:	7023      	strb	r3, [r4, #0]
 80001aa:	bd10      	pop	{r4, pc}
 80001ac:	20000000 	.word	0x20000000
 80001b0:	00000000 	.word	0x00000000
 80001b4:	08000684 	.word	0x08000684

080001b8 <frame_dummy>:
 80001b8:	b508      	push	{r3, lr}
 80001ba:	4b03      	ldr	r3, [pc, #12]	@ (80001c8 <frame_dummy+0x10>)
 80001bc:	b11b      	cbz	r3, 80001c6 <frame_dummy+0xe>
 80001be:	4903      	ldr	r1, [pc, #12]	@ (80001cc <frame_dummy+0x14>)
 80001c0:	4803      	ldr	r0, [pc, #12]	@ (80001d0 <frame_dummy+0x18>)
 80001c2:	f3af 8000 	nop.w
 80001c6:	bd08      	pop	{r3, pc}
 80001c8:	00000000 	.word	0x00000000
 80001cc:	20000004 	.word	0x20000004
 80001d0:	08000684 	.word	0x08000684

080001d4 <validate>:
 */

#include "gpio.h"

static int validate(GPIO_TypeDef *port, uint8_t pin)
{
 80001d4:	b480      	push	{r7}
 80001d6:	b083      	sub	sp, #12
 80001d8:	af00      	add	r7, sp, #0
 80001da:	6078      	str	r0, [r7, #4]
 80001dc:	460b      	mov	r3, r1
 80001de:	70fb      	strb	r3, [r7, #3]
    if (port == 0) return -1;
 80001e0:	687b      	ldr	r3, [r7, #4]
 80001e2:	2b00      	cmp	r3, #0
 80001e4:	d102      	bne.n	80001ec <validate+0x18>
 80001e6:	f04f 33ff 	mov.w	r3, #4294967295
 80001ea:	e006      	b.n	80001fa <validate+0x26>
    if (pin > 15)  return -1;
 80001ec:	78fb      	ldrb	r3, [r7, #3]
 80001ee:	2b0f      	cmp	r3, #15
 80001f0:	d902      	bls.n	80001f8 <validate+0x24>
 80001f2:	f04f 33ff 	mov.w	r3, #4294967295
 80001f6:	e000      	b.n	80001fa <validate+0x26>
    return 0;
 80001f8:	2300      	movs	r3, #0
}
 80001fa:	4618      	mov	r0, r3
 80001fc:	370c      	adds	r7, #12
 80001fe:	46bd      	mov	sp, r7
 8000200:	f85d 7b04 	ldr.w	r7, [sp], #4
 8000204:	4770      	bx	lr
	...

08000208 <enable_clock>:

static int enable_clock(GPIO_TypeDef *port)
{
 8000208:	b480      	push	{r7}
 800020a:	b083      	sub	sp, #12
 800020c:	af00      	add	r7, sp, #0
 800020e:	6078      	str	r0, [r7, #4]
    if      (port == GPIOA) RCC->AHBENR |= RCC_AHBENR_GPIOAEN;
 8000210:	687b      	ldr	r3, [r7, #4]
 8000212:	f1b3 4f90 	cmp.w	r3, #1207959552	@ 0x48000000
 8000216:	d106      	bne.n	8000226 <enable_clock+0x1e>
 8000218:	4b23      	ldr	r3, [pc, #140]	@ (80002a8 <enable_clock+0xa0>)
 800021a:	695b      	ldr	r3, [r3, #20]
 800021c:	4a22      	ldr	r2, [pc, #136]	@ (80002a8 <enable_clock+0xa0>)
 800021e:	f443 3300 	orr.w	r3, r3, #131072	@ 0x20000
 8000222:	6153      	str	r3, [r2, #20]
 8000224:	e039      	b.n	800029a <enable_clock+0x92>
    else if (port == GPIOB) RCC->AHBENR |= RCC_AHBENR_GPIOBEN;
 8000226:	687b      	ldr	r3, [r7, #4]
 8000228:	4a20      	ldr	r2, [pc, #128]	@ (80002ac <enable_clock+0xa4>)
 800022a:	4293      	cmp	r3, r2
 800022c:	d106      	bne.n	800023c <enable_clock+0x34>
 800022e:	4b1e      	ldr	r3, [pc, #120]	@ (80002a8 <enable_clock+0xa0>)
 8000230:	695b      	ldr	r3, [r3, #20]
 8000232:	4a1d      	ldr	r2, [pc, #116]	@ (80002a8 <enable_clock+0xa0>)
 8000234:	f443 2380 	orr.w	r3, r3, #262144	@ 0x40000
 8000238:	6153      	str	r3, [r2, #20]
 800023a:	e02e      	b.n	800029a <enable_clock+0x92>
    else if (port == GPIOC) RCC->AHBENR |= RCC_AHBENR_GPIOCEN;
 800023c:	687b      	ldr	r3, [r7, #4]
 800023e:	4a1c      	ldr	r2, [pc, #112]	@ (80002b0 <enable_clock+0xa8>)
 8000240:	4293      	cmp	r3, r2
 8000242:	d106      	bne.n	8000252 <enable_clock+0x4a>
 8000244:	4b18      	ldr	r3, [pc, #96]	@ (80002a8 <enable_clock+0xa0>)
 8000246:	695b      	ldr	r3, [r3, #20]
 8000248:	4a17      	ldr	r2, [pc, #92]	@ (80002a8 <enable_clock+0xa0>)
 800024a:	f443 2300 	orr.w	r3, r3, #524288	@ 0x80000
 800024e:	6153      	str	r3, [r2, #20]
 8000250:	e023      	b.n	800029a <enable_clock+0x92>
    else if (port == GPIOD) RCC->AHBENR |= RCC_AHBENR_GPIODEN;
 8000252:	687b      	ldr	r3, [r7, #4]
 8000254:	4a17      	ldr	r2, [pc, #92]	@ (80002b4 <enable_clock+0xac>)
 8000256:	4293      	cmp	r3, r2
 8000258:	d106      	bne.n	8000268 <enable_clock+0x60>
 800025a:	4b13      	ldr	r3, [pc, #76]	@ (80002a8 <enable_clock+0xa0>)
 800025c:	695b      	ldr	r3, [r3, #20]
 800025e:	4a12      	ldr	r2, [pc, #72]	@ (80002a8 <enable_clock+0xa0>)
 8000260:	f443 1380 	orr.w	r3, r3, #1048576	@ 0x100000
 8000264:	6153      	str	r3, [r2, #20]
 8000266:	e018      	b.n	800029a <enable_clock+0x92>
    else if (port == GPIOE) RCC->AHBENR |= RCC_AHBENR_GPIOEEN;
 8000268:	687b      	ldr	r3, [r7, #4]
 800026a:	4a13      	ldr	r2, [pc, #76]	@ (80002b8 <enable_clock+0xb0>)
 800026c:	4293      	cmp	r3, r2
 800026e:	d106      	bne.n	800027e <enable_clock+0x76>
 8000270:	4b0d      	ldr	r3, [pc, #52]	@ (80002a8 <enable_clock+0xa0>)
 8000272:	695b      	ldr	r3, [r3, #20]
 8000274:	4a0c      	ldr	r2, [pc, #48]	@ (80002a8 <enable_clock+0xa0>)
 8000276:	f443 1300 	orr.w	r3, r3, #2097152	@ 0x200000
 800027a:	6153      	str	r3, [r2, #20]
 800027c:	e00d      	b.n	800029a <enable_clock+0x92>
    else if (port == GPIOF) RCC->AHBENR |= RCC_AHBENR_GPIOFEN;
 800027e:	687b      	ldr	r3, [r7, #4]
 8000280:	4a0e      	ldr	r2, [pc, #56]	@ (80002bc <enable_clock+0xb4>)
 8000282:	4293      	cmp	r3, r2
 8000284:	d106      	bne.n	8000294 <enable_clock+0x8c>
 8000286:	4b08      	ldr	r3, [pc, #32]	@ (80002a8 <enable_clock+0xa0>)
 8000288:	695b      	ldr	r3, [r3, #20]
 800028a:	4a07      	ldr	r2, [pc, #28]	@ (80002a8 <enable_clock+0xa0>)
 800028c:	f443 0380 	orr.w	r3, r3, #4194304	@ 0x400000
 8000290:	6153      	str	r3, [r2, #20]
 8000292:	e002      	b.n	800029a <enable_clock+0x92>
    else return -1;
 8000294:	f04f 33ff 	mov.w	r3, #4294967295
 8000298:	e000      	b.n	800029c <enable_clock+0x94>
    return 0;
 800029a:	2300      	movs	r3, #0
}
 800029c:	4618      	mov	r0, r3
 800029e:	370c      	adds	r7, #12
 80002a0:	46bd      	mov	sp, r7
 80002a2:	f85d 7b04 	ldr.w	r7, [sp], #4
 80002a6:	4770      	bx	lr
 80002a8:	40021000 	.word	0x40021000
 80002ac:	48000400 	.word	0x48000400
 80002b0:	48000800 	.word	0x48000800
 80002b4:	48000c00 	.word	0x48000c00
 80002b8:	48001000 	.word	0x48001000
 80002bc:	48001400 	.word	0x48001400

080002c0 <gpio_init>:

int gpio_init(GPIO_TypeDef *port, uint8_t pin, GPIO_Direction direction)
{
 80002c0:	b580      	push	{r7, lr}
 80002c2:	b082      	sub	sp, #8
 80002c4:	af00      	add	r7, sp, #0
 80002c6:	6078      	str	r0, [r7, #4]
 80002c8:	460b      	mov	r3, r1
 80002ca:	70fb      	strb	r3, [r7, #3]
 80002cc:	4613      	mov	r3, r2
 80002ce:	70bb      	strb	r3, [r7, #2]
    if (validate(port, pin) != 0) return -1;
 80002d0:	78fb      	ldrb	r3, [r7, #3]
 80002d2:	4619      	mov	r1, r3
 80002d4:	6878      	ldr	r0, [r7, #4]
 80002d6:	f7ff ff7d 	bl	80001d4 <validate>
 80002da:	4603      	mov	r3, r0
 80002dc:	2b00      	cmp	r3, #0
 80002de:	d002      	beq.n	80002e6 <gpio_init+0x26>
 80002e0:	f04f 33ff 	mov.w	r3, #4294967295
 80002e4:	e051      	b.n	800038a <gpio_init+0xca>
    if (enable_clock(port)  != 0) return -1;
 80002e6:	6878      	ldr	r0, [r7, #4]
 80002e8:	f7ff ff8e 	bl	8000208 <enable_clock>
 80002ec:	4603      	mov	r3, r0
 80002ee:	2b00      	cmp	r3, #0
 80002f0:	d002      	beq.n	80002f8 <gpio_init+0x38>
 80002f2:	f04f 33ff 	mov.w	r3, #4294967295
 80002f6:	e048      	b.n	800038a <gpio_init+0xca>

    /* Clear mode bits */
    port->MODER &= ~(0x3U << (pin * 2));
 80002f8:	687b      	ldr	r3, [r7, #4]
 80002fa:	681a      	ldr	r2, [r3, #0]
 80002fc:	78fb      	ldrb	r3, [r7, #3]
 80002fe:	005b      	lsls	r3, r3, #1
 8000300:	2103      	movs	r1, #3
 8000302:	fa01 f303 	lsl.w	r3, r1, r3
 8000306:	43db      	mvns	r3, r3
 8000308:	401a      	ands	r2, r3
 800030a:	687b      	ldr	r3, [r7, #4]
 800030c:	601a      	str	r2, [r3, #0]

    switch (direction) {
 800030e:	78bb      	ldrb	r3, [r7, #2]
 8000310:	2b01      	cmp	r3, #1
 8000312:	d002      	beq.n	800031a <gpio_init+0x5a>
 8000314:	2b02      	cmp	r3, #2
 8000316:	d016      	beq.n	8000346 <gpio_init+0x86>
 8000318:	e020      	b.n	800035c <gpio_init+0x9c>
        case GPIO_DIRECTION_OUTPUT:
            port->MODER |=  (0x1U << (pin * 2));  /* 01 = output */
 800031a:	687b      	ldr	r3, [r7, #4]
 800031c:	681a      	ldr	r2, [r3, #0]
 800031e:	78fb      	ldrb	r3, [r7, #3]
 8000320:	005b      	lsls	r3, r3, #1
 8000322:	2101      	movs	r1, #1
 8000324:	fa01 f303 	lsl.w	r3, r1, r3
 8000328:	431a      	orrs	r2, r3
 800032a:	687b      	ldr	r3, [r7, #4]
 800032c:	601a      	str	r2, [r3, #0]
            port->PUPDR &= ~(0x3U << (pin * 2));   /* no pull */
 800032e:	687b      	ldr	r3, [r7, #4]
 8000330:	68da      	ldr	r2, [r3, #12]
 8000332:	78fb      	ldrb	r3, [r7, #3]
 8000334:	005b      	lsls	r3, r3, #1
 8000336:	2103      	movs	r1, #3
 8000338:	fa01 f303 	lsl.w	r3, r1, r3
 800033c:	43db      	mvns	r3, r3
 800033e:	401a      	ands	r2, r3
 8000340:	687b      	ldr	r3, [r7, #4]
 8000342:	60da      	str	r2, [r3, #12]
            break;
 8000344:	e020      	b.n	8000388 <gpio_init+0xc8>
        case GPIO_DIRECTION_AF:
            port->MODER |=  (0x2U << (pin * 2));  /* 10 = alternate function */
 8000346:	687b      	ldr	r3, [r7, #4]
 8000348:	681a      	ldr	r2, [r3, #0]
 800034a:	78fb      	ldrb	r3, [r7, #3]
 800034c:	005b      	lsls	r3, r3, #1
 800034e:	2102      	movs	r1, #2
 8000350:	fa01 f303 	lsl.w	r3, r1, r3
 8000354:	431a      	orrs	r2, r3
 8000356:	687b      	ldr	r3, [r7, #4]
 8000358:	601a      	str	r2, [r3, #0]
            break;
 800035a:	e015      	b.n	8000388 <gpio_init+0xc8>
        case GPIO_DIRECTION_INPUT:
        default:
            /* 00 = input, pull-down */
            port->PUPDR &= ~(0x3U << (pin * 2));
 800035c:	687b      	ldr	r3, [r7, #4]
 800035e:	68da      	ldr	r2, [r3, #12]
 8000360:	78fb      	ldrb	r3, [r7, #3]
 8000362:	005b      	lsls	r3, r3, #1
 8000364:	2103      	movs	r1, #3
 8000366:	fa01 f303 	lsl.w	r3, r1, r3
 800036a:	43db      	mvns	r3, r3
 800036c:	401a      	ands	r2, r3
 800036e:	687b      	ldr	r3, [r7, #4]
 8000370:	60da      	str	r2, [r3, #12]
            port->PUPDR |=  (0x2U << (pin * 2));
 8000372:	687b      	ldr	r3, [r7, #4]
 8000374:	68da      	ldr	r2, [r3, #12]
 8000376:	78fb      	ldrb	r3, [r7, #3]
 8000378:	005b      	lsls	r3, r3, #1
 800037a:	2102      	movs	r1, #2
 800037c:	fa01 f303 	lsl.w	r3, r1, r3
 8000380:	431a      	orrs	r2, r3
 8000382:	687b      	ldr	r3, [r7, #4]
 8000384:	60da      	str	r2, [r3, #12]
            break;
 8000386:	bf00      	nop
    }
    return 0;
 8000388:	2300      	movs	r3, #0
}
 800038a:	4618      	mov	r0, r3
 800038c:	3708      	adds	r7, #8
 800038e:	46bd      	mov	sp, r7
 8000390:	bd80      	pop	{r7, pc}

08000392 <gpio_write>:

    return 0;
}

int gpio_write(GPIO_TypeDef *port, uint8_t pin, GPIO_PinState_t state)
{
 8000392:	b580      	push	{r7, lr}
 8000394:	b082      	sub	sp, #8
 8000396:	af00      	add	r7, sp, #0
 8000398:	6078      	str	r0, [r7, #4]
 800039a:	460b      	mov	r3, r1
 800039c:	70fb      	strb	r3, [r7, #3]
 800039e:	4613      	mov	r3, r2
 80003a0:	70bb      	strb	r3, [r7, #2]
    if (validate(port, pin) != 0) return -1;
 80003a2:	78fb      	ldrb	r3, [r7, #3]
 80003a4:	4619      	mov	r1, r3
 80003a6:	6878      	ldr	r0, [r7, #4]
 80003a8:	f7ff ff14 	bl	80001d4 <validate>
 80003ac:	4603      	mov	r3, r0
 80003ae:	2b00      	cmp	r3, #0
 80003b0:	d002      	beq.n	80003b8 <gpio_write+0x26>
 80003b2:	f04f 33ff 	mov.w	r3, #4294967295
 80003b6:	e00f      	b.n	80003d8 <gpio_write+0x46>

    if (state == GPIO_PIN_HIGH)
 80003b8:	78bb      	ldrb	r3, [r7, #2]
 80003ba:	2b01      	cmp	r3, #1
 80003bc:	d105      	bne.n	80003ca <gpio_write+0x38>
        port->BSRR = (1U << pin);
 80003be:	78fb      	ldrb	r3, [r7, #3]
 80003c0:	2201      	movs	r2, #1
 80003c2:	409a      	lsls	r2, r3
 80003c4:	687b      	ldr	r3, [r7, #4]
 80003c6:	619a      	str	r2, [r3, #24]
 80003c8:	e005      	b.n	80003d6 <gpio_write+0x44>
    else
        port->BSRR = (1U << (pin + 16));
 80003ca:	78fb      	ldrb	r3, [r7, #3]
 80003cc:	3310      	adds	r3, #16
 80003ce:	2201      	movs	r2, #1
 80003d0:	409a      	lsls	r2, r3
 80003d2:	687b      	ldr	r3, [r7, #4]
 80003d4:	619a      	str	r2, [r3, #24]
    return 0;
 80003d6:	2300      	movs	r3, #0
}
 80003d8:	4618      	mov	r0, r3
 80003da:	3708      	adds	r7, #8
 80003dc:	46bd      	mov	sp, r7
 80003de:	bd80      	pop	{r7, pc}

080003e0 <on_timer_a>:

// Tasks A and B
#ifdef TASK_A_DEMO

static void on_timer_a(void) // Call-back function for toggling LED's
{
 80003e0:	b580      	push	{r7, lr}
 80003e2:	af00      	add	r7, sp, #0
    static int state = 0;
    if (state == 0) {
 80003e4:	4b0b      	ldr	r3, [pc, #44]	@ (8000414 <on_timer_a+0x34>)
 80003e6:	681b      	ldr	r3, [r3, #0]
 80003e8:	2b00      	cmp	r3, #0
 80003ea:	d108      	bne.n	80003fe <on_timer_a+0x1e>
        gpio_write(GPIOE, 8, GPIO_PIN_HIGH); // Turns LED on
 80003ec:	2201      	movs	r2, #1
 80003ee:	2108      	movs	r1, #8
 80003f0:	4809      	ldr	r0, [pc, #36]	@ (8000418 <on_timer_a+0x38>)
 80003f2:	f7ff ffce 	bl	8000392 <gpio_write>
        state = 1;
 80003f6:	4b07      	ldr	r3, [pc, #28]	@ (8000414 <on_timer_a+0x34>)
 80003f8:	2201      	movs	r2, #1
 80003fa:	601a      	str	r2, [r3, #0]
    } else {
        gpio_write(GPIOE, 8, GPIO_PIN_LOW);  // Turns the LED off
        state = 0;
    }
}
 80003fc:	e007      	b.n	800040e <on_timer_a+0x2e>
        gpio_write(GPIOE, 8, GPIO_PIN_LOW);  // Turns the LED off
 80003fe:	2200      	movs	r2, #0
 8000400:	2108      	movs	r1, #8
 8000402:	4805      	ldr	r0, [pc, #20]	@ (8000418 <on_timer_a+0x38>)
 8000404:	f7ff ffc5 	bl	8000392 <gpio_write>
        state = 0;
 8000408:	4b02      	ldr	r3, [pc, #8]	@ (8000414 <on_timer_a+0x34>)
 800040a:	2200      	movs	r2, #0
 800040c:	601a      	str	r2, [r3, #0]
}
 800040e:	bf00      	nop
 8000410:	bd80      	pop	{r7, pc}
 8000412:	bf00      	nop
 8000414:	2000001c 	.word	0x2000001c
 8000418:	48001000 	.word	0x48001000

0800041c <main>:

int main(void)
{
 800041c:	b580      	push	{r7, lr}
 800041e:	af00      	add	r7, sp, #0
    gpio_init(GPIOE, 8, GPIO_DIRECTION_OUTPUT);  // Initialises GPIOE clock by enabling it and sets MODER bits for pin 8 to output mode
 8000420:	2201      	movs	r2, #1
 8000422:	2108      	movs	r1, #8
 8000424:	4807      	ldr	r0, [pc, #28]	@ (8000444 <main+0x28>)
 8000426:	f7ff ff4b 	bl	80002c0 <gpio_init>
    gpio_write(GPIOE, 8, GPIO_PIN_LOW); // Drives low to ensure the LED starts off before the timer starts
 800042a:	2200      	movs	r2, #0
 800042c:	2108      	movs	r1, #8
 800042e:	4805      	ldr	r0, [pc, #20]	@ (8000444 <main+0x28>)
 8000430:	f7ff ffaf 	bl	8000392 <gpio_write>

    // TASK A: interval (500ms) and callback passed at init
    timer_init(500, on_timer_a);
 8000434:	4904      	ldr	r1, [pc, #16]	@ (8000448 <main+0x2c>)
 8000436:	f44f 70fa 	mov.w	r0, #500	@ 0x1f4
 800043a:	f000 f881 	bl	8000540 <timer_init>
    // TASK B: un-comment these three lines to demo get/set.
    // uint32_t current = timer_get_period_ms();  // Gets the current period
    // (void)current; // Removes memory warning
    // timer_set_period_ms(100); // Sets the new period

    while (1) {}
 800043e:	bf00      	nop
 8000440:	e7fd      	b.n	800043e <main+0x22>
 8000442:	bf00      	nop
 8000444:	48001000 	.word	0x48001000
 8000448:	080003e1 	.word	0x080003e1

0800044c <TIM4_IRQHandler>:
// Private call back function pointer, initialised to NULL (0)
static OneShotCallback stored_callback = 0;

// Interrupt Service Routine (ISR) for TIM4
void TIM4_IRQHandler(void) // This interrupt is triggered by the counter overflowing
{
 800044c:	b580      	push	{r7, lr}
 800044e:	af00      	add	r7, sp, #0
    TIM4->SR  &= ~TIM_SR_UIF;   // Clears the update interrupt flag to prevent the ISR from firing again immediately
 8000450:	4b0a      	ldr	r3, [pc, #40]	@ (800047c <TIM4_IRQHandler+0x30>)
 8000452:	691b      	ldr	r3, [r3, #16]
 8000454:	4a09      	ldr	r2, [pc, #36]	@ (800047c <TIM4_IRQHandler+0x30>)
 8000456:	f023 0301 	bic.w	r3, r3, #1
 800045a:	6113      	str	r3, [r2, #16]
    TIM4->CR1 &= ~TIM_CR1_CEN;  // Stops TIM4 by clearing the CEN (Counter Enable) - This is what ensures that the interrupt is only fired once
 800045c:	4b07      	ldr	r3, [pc, #28]	@ (800047c <TIM4_IRQHandler+0x30>)
 800045e:	681b      	ldr	r3, [r3, #0]
 8000460:	4a06      	ldr	r2, [pc, #24]	@ (800047c <TIM4_IRQHandler+0x30>)
 8000462:	f023 0301 	bic.w	r3, r3, #1
 8000466:	6013      	str	r3, [r2, #0]

    if (stored_callback != 0) {
 8000468:	4b05      	ldr	r3, [pc, #20]	@ (8000480 <TIM4_IRQHandler+0x34>)
 800046a:	681b      	ldr	r3, [r3, #0]
 800046c:	2b00      	cmp	r3, #0
 800046e:	d002      	beq.n	8000476 <TIM4_IRQHandler+0x2a>
        stored_callback(); // Calls the callback function after checking that it isn't empty
 8000470:	4b03      	ldr	r3, [pc, #12]	@ (8000480 <TIM4_IRQHandler+0x34>)
 8000472:	681b      	ldr	r3, [r3, #0]
 8000474:	4798      	blx	r3
    }
}
 8000476:	bf00      	nop
 8000478:	bd80      	pop	{r7, pc}
 800047a:	bf00      	nop
 800047c:	40000800 	.word	0x40000800
 8000480:	20000020 	.word	0x20000020

08000484 <__NVIC_EnableIRQ>:
  \details Enables a device specific interrupt in the NVIC interrupt controller.
  \param [in]      IRQn  Device specific interrupt number.
  \note    IRQn must not be negative.
 */
__STATIC_INLINE void __NVIC_EnableIRQ(IRQn_Type IRQn)
{
 8000484:	b480      	push	{r7}
 8000486:	b083      	sub	sp, #12
 8000488:	af00      	add	r7, sp, #0
 800048a:	4603      	mov	r3, r0
 800048c:	71fb      	strb	r3, [r7, #7]
  if ((int32_t)(IRQn) >= 0)
 800048e:	f997 3007 	ldrsb.w	r3, [r7, #7]
 8000492:	2b00      	cmp	r3, #0
 8000494:	db0b      	blt.n	80004ae <__NVIC_EnableIRQ+0x2a>
  {
    NVIC->ISER[(((uint32_t)IRQn) >> 5UL)] = (uint32_t)(1UL << (((uint32_t)IRQn) & 0x1FUL));
 8000496:	79fb      	ldrb	r3, [r7, #7]
 8000498:	f003 021f 	and.w	r2, r3, #31
 800049c:	4907      	ldr	r1, [pc, #28]	@ (80004bc <__NVIC_EnableIRQ+0x38>)
 800049e:	f997 3007 	ldrsb.w	r3, [r7, #7]
 80004a2:	095b      	lsrs	r3, r3, #5
 80004a4:	2001      	movs	r0, #1
 80004a6:	fa00 f202 	lsl.w	r2, r0, r2
 80004aa:	f841 2023 	str.w	r2, [r1, r3, lsl #2]
  }
}
 80004ae:	bf00      	nop
 80004b0:	370c      	adds	r7, #12
 80004b2:	46bd      	mov	sp, r7
 80004b4:	f85d 7b04 	ldr.w	r7, [sp], #4
 80004b8:	4770      	bx	lr
 80004ba:	bf00      	nop
 80004bc:	e000e100 	.word	0xe000e100

080004c0 <__NVIC_SetPriority>:
  \param [in]      IRQn  Interrupt number.
  \param [in]  priority  Priority to set.
  \note    The priority cannot be set for every processor exception.
 */
__STATIC_INLINE void __NVIC_SetPriority(IRQn_Type IRQn, uint32_t priority)
{
 80004c0:	b480      	push	{r7}
 80004c2:	b083      	sub	sp, #12
 80004c4:	af00      	add	r7, sp, #0
 80004c6:	4603      	mov	r3, r0
 80004c8:	6039      	str	r1, [r7, #0]
 80004ca:	71fb      	strb	r3, [r7, #7]
  if ((int32_t)(IRQn) >= 0)
 80004cc:	f997 3007 	ldrsb.w	r3, [r7, #7]
 80004d0:	2b00      	cmp	r3, #0
 80004d2:	db0a      	blt.n	80004ea <__NVIC_SetPriority+0x2a>
  {
    NVIC->IP[((uint32_t)IRQn)]               = (uint8_t)((priority << (8U - __NVIC_PRIO_BITS)) & (uint32_t)0xFFUL);
 80004d4:	683b      	ldr	r3, [r7, #0]
 80004d6:	b2da      	uxtb	r2, r3
 80004d8:	490c      	ldr	r1, [pc, #48]	@ (800050c <__NVIC_SetPriority+0x4c>)
 80004da:	f997 3007 	ldrsb.w	r3, [r7, #7]
 80004de:	0112      	lsls	r2, r2, #4
 80004e0:	b2d2      	uxtb	r2, r2
 80004e2:	440b      	add	r3, r1
 80004e4:	f883 2300 	strb.w	r2, [r3, #768]	@ 0x300
  }
  else
  {
    SCB->SHP[(((uint32_t)IRQn) & 0xFUL)-4UL] = (uint8_t)((priority << (8U - __NVIC_PRIO_BITS)) & (uint32_t)0xFFUL);
  }
}
 80004e8:	e00a      	b.n	8000500 <__NVIC_SetPriority+0x40>
    SCB->SHP[(((uint32_t)IRQn) & 0xFUL)-4UL] = (uint8_t)((priority << (8U - __NVIC_PRIO_BITS)) & (uint32_t)0xFFUL);
 80004ea:	683b      	ldr	r3, [r7, #0]
 80004ec:	b2da      	uxtb	r2, r3
 80004ee:	4908      	ldr	r1, [pc, #32]	@ (8000510 <__NVIC_SetPriority+0x50>)
 80004f0:	79fb      	ldrb	r3, [r7, #7]
 80004f2:	f003 030f 	and.w	r3, r3, #15
 80004f6:	3b04      	subs	r3, #4
 80004f8:	0112      	lsls	r2, r2, #4
 80004fa:	b2d2      	uxtb	r2, r2
 80004fc:	440b      	add	r3, r1
 80004fe:	761a      	strb	r2, [r3, #24]
}
 8000500:	bf00      	nop
 8000502:	370c      	adds	r7, #12
 8000504:	46bd      	mov	sp, r7
 8000506:	f85d 7b04 	ldr.w	r7, [sp], #4
 800050a:	4770      	bx	lr
 800050c:	e000e100 	.word	0xe000e100
 8000510:	e000ed00 	.word	0xe000ed00

08000514 <TIM3_IRQHandler>:
static          TimerCallback cb    = 0; // Represents an empty function pointer, when we jump to the pointer of a function we check that the pointer is not empty (actually points to an address)


// TIM3 Interrupt Service Routine - Function that runs when interrupt is fired
void TIM3_IRQHandler(void) // Interrupt request handler for TIM3
{
 8000514:	b580      	push	{r7, lr}
 8000516:	af00      	add	r7, sp, #0
    TIM3->SR &= ~TIM_SR_UIF;   // SR is the status register, when an interrupt fires it clears the UIF (Update Interrupt Flag) to 0 and allows for next interrupt to fire, otherwise the ISR enters an infinite loop
 8000518:	4b07      	ldr	r3, [pc, #28]	@ (8000538 <TIM3_IRQHandler+0x24>)
 800051a:	691b      	ldr	r3, [r3, #16]
 800051c:	4a06      	ldr	r2, [pc, #24]	@ (8000538 <TIM3_IRQHandler+0x24>)
 800051e:	f023 0301 	bic.w	r3, r3, #1
 8000522:	6113      	str	r3, [r2, #16]
    if (cb != 0) { // Checks if the call-back function is NULL (0), if it is then it skips the call
 8000524:	4b05      	ldr	r3, [pc, #20]	@ (800053c <TIM3_IRQHandler+0x28>)
 8000526:	681b      	ldr	r3, [r3, #0]
 8000528:	2b00      	cmp	r3, #0
 800052a:	d002      	beq.n	8000532 <TIM3_IRQHandler+0x1e>
        cb(); // Calls the function fed into it
 800052c:	4b03      	ldr	r3, [pc, #12]	@ (800053c <TIM3_IRQHandler+0x28>)
 800052e:	681b      	ldr	r3, [r3, #0]
 8000530:	4798      	blx	r3
    }
}
 8000532:	bf00      	nop
 8000534:	bd80      	pop	{r7, pc}
 8000536:	bf00      	nop
 8000538:	40000400 	.word	0x40000400
 800053c:	20000028 	.word	0x20000028

08000540 <timer_init>:

// Accessible Functions (Global scope)

// Initialise Timer
void timer_init(uint32_t period_ms_arg, TimerCallback callback) // Two inputs: period_ms_arg (desired period in ms), callback (function pointer for callback)
{
 8000540:	b580      	push	{r7, lr}
 8000542:	b082      	sub	sp, #8
 8000544:	af00      	add	r7, sp, #0
 8000546:	6078      	str	r0, [r7, #4]
 8000548:	6039      	str	r1, [r7, #0]
    period_ms = (period_ms_arg >= 1) ? period_ms_arg : 1; // Sets the period to 1 if the argument passed into the function is less than 1
 800054a:	687b      	ldr	r3, [r7, #4]
 800054c:	2b00      	cmp	r3, #0
 800054e:	d001      	beq.n	8000554 <timer_init+0x14>
 8000550:	687b      	ldr	r3, [r7, #4]
 8000552:	e000      	b.n	8000556 <timer_init+0x16>
 8000554:	2301      	movs	r3, #1
 8000556:	4a20      	ldr	r2, [pc, #128]	@ (80005d8 <timer_init+0x98>)
 8000558:	6013      	str	r3, [r2, #0]
    cb        = callback; // Setting cb function from argument
 800055a:	4a20      	ldr	r2, [pc, #128]	@ (80005dc <timer_init+0x9c>)
 800055c:	683b      	ldr	r3, [r7, #0]
 800055e:	6013      	str	r3, [r2, #0]

    RCC->APB1ENR |= RCC_APB1ENR_TIM3EN; // Enables the clock for TIM3 (APB1ENR is clock enable register for APB1 Peripherals)
 8000560:	4b1f      	ldr	r3, [pc, #124]	@ (80005e0 <timer_init+0xa0>)
 8000562:	69db      	ldr	r3, [r3, #28]
 8000564:	4a1e      	ldr	r2, [pc, #120]	@ (80005e0 <timer_init+0xa0>)
 8000566:	f043 0302 	orr.w	r3, r3, #2
 800056a:	61d3      	str	r3, [r2, #28]
  \details Disables IRQ interrupts by setting the I-bit in the CPSR.
           Can only be executed in Privileged modes.
 */
__STATIC_FORCEINLINE void __disable_irq(void)
{
  __ASM volatile ("cpsid i" : : : "memory");
 800056c:	b672      	cpsid	i
}
 800056e:	bf00      	nop

    __disable_irq(); // Disables the interrupts globally, such that no interrupts may fire while we are configuring the timer

    TIM3->CR1  &= ~TIM_CR1_CEN; // Clears the Counter Enable bit (CEN). Stops the timer so it doesn't behave unexpectedly during configuration.
 8000570:	4b1c      	ldr	r3, [pc, #112]	@ (80005e4 <timer_init+0xa4>)
 8000572:	681b      	ldr	r3, [r3, #0]
 8000574:	4a1b      	ldr	r2, [pc, #108]	@ (80005e4 <timer_init+0xa4>)
 8000576:	f023 0301 	bic.w	r3, r3, #1
 800057a:	6013      	str	r3, [r2, #0]
    TIM3->PSC   = 7999; // Sets the pre-scaler dividing the 8MHz clock for TIM3 by 8000, such that it is 1 kHz. This means that now each 'tick' is 1ms. It is +1 as the pre-scaler automatically adds 1
 800057c:	4b19      	ldr	r3, [pc, #100]	@ (80005e4 <timer_init+0xa4>)
 800057e:	f641 723f 	movw	r2, #7999	@ 0x1f3f
 8000582:	629a      	str	r2, [r3, #40]	@ 0x28
    TIM3->ARR   = (uint32_t)(period_ms - 1); // ARR (Auto-Reload Register). This sets the number that the counter counts up to before overflowing and firing the interrupt. If period = 500, ARR = 499, thus counter counts up to 499 and then fires.
 8000584:	4b14      	ldr	r3, [pc, #80]	@ (80005d8 <timer_init+0x98>)
 8000586:	681b      	ldr	r3, [r3, #0]
 8000588:	4a16      	ldr	r2, [pc, #88]	@ (80005e4 <timer_init+0xa4>)
 800058a:	3b01      	subs	r3, #1
 800058c:	62d3      	str	r3, [r2, #44]	@ 0x2c
    TIM3->EGR  |= TIM_EGR_UG; // Writing the UG bit of the EGR (Event Generation Register), loads shadow registers to allow for immediate effect
 800058e:	4b15      	ldr	r3, [pc, #84]	@ (80005e4 <timer_init+0xa4>)
 8000590:	695b      	ldr	r3, [r3, #20]
 8000592:	4a14      	ldr	r2, [pc, #80]	@ (80005e4 <timer_init+0xa4>)
 8000594:	f043 0301 	orr.w	r3, r3, #1
 8000598:	6153      	str	r3, [r2, #20]
    TIM3->SR   &= ~TIM_SR_UIF; // Writing to the EGR may have set the status register (interrupt flag), this prevents any undesired behaviour by clearing it
 800059a:	4b12      	ldr	r3, [pc, #72]	@ (80005e4 <timer_init+0xa4>)
 800059c:	691b      	ldr	r3, [r3, #16]
 800059e:	4a11      	ldr	r2, [pc, #68]	@ (80005e4 <timer_init+0xa4>)
 80005a0:	f023 0301 	bic.w	r3, r3, #1
 80005a4:	6113      	str	r3, [r2, #16]
    TIM3->DIER |= TIM_DIER_UIE; // Enables the DMA/Interrupt Enable Register. Tells TIM3 to generate an interrupt request when it overflows (i.e. finishes one round of counting)
 80005a6:	4b0f      	ldr	r3, [pc, #60]	@ (80005e4 <timer_init+0xa4>)
 80005a8:	68db      	ldr	r3, [r3, #12]
 80005aa:	4a0e      	ldr	r2, [pc, #56]	@ (80005e4 <timer_init+0xa4>)
 80005ac:	f043 0301 	orr.w	r3, r3, #1
 80005b0:	60d3      	str	r3, [r2, #12]

    NVIC_SetPriority(TIM3_IRQn, 2); // Sets the priority of the interrupt to 2, such that higher priority interrupts can act first while still maintaining a relatively high priority
 80005b2:	2102      	movs	r1, #2
 80005b4:	201d      	movs	r0, #29
 80005b6:	f7ff ff83 	bl	80004c0 <__NVIC_SetPriority>
    NVIC_EnableIRQ(TIM3_IRQn); // Tells the interrupt controller (NVIC) to check the priority of the Interrupt Request (IRQ) then call the ISR (Interrupt Service Routine)
 80005ba:	201d      	movs	r0, #29
 80005bc:	f7ff ff62 	bl	8000484 <__NVIC_EnableIRQ>

    TIM3->CR1  |= TIM_CR1_CEN; // Sets CEN (Counter Enable) --> Counter begins counting up from 0 to ARR, then fires the interrupt and then resets
 80005c0:	4b08      	ldr	r3, [pc, #32]	@ (80005e4 <timer_init+0xa4>)
 80005c2:	681b      	ldr	r3, [r3, #0]
 80005c4:	4a07      	ldr	r2, [pc, #28]	@ (80005e4 <timer_init+0xa4>)
 80005c6:	f043 0301 	orr.w	r3, r3, #1
 80005ca:	6013      	str	r3, [r2, #0]
  __ASM volatile ("cpsie i" : : : "memory");
 80005cc:	b662      	cpsie	i
}
 80005ce:	bf00      	nop

    __enable_irq(); // Enables interrupts to occur since configuration has completed
}
 80005d0:	bf00      	nop
 80005d2:	3708      	adds	r7, #8
 80005d4:	46bd      	mov	sp, r7
 80005d6:	bd80      	pop	{r7, pc}
 80005d8:	20000024 	.word	0x20000024
 80005dc:	20000028 	.word	0x20000028
 80005e0:	40021000 	.word	0x40021000
 80005e4:	40000400 	.word	0x40000400

080005e8 <Reset_Handler>:

  .section .text.Reset_Handler
  .weak Reset_Handler
  .type Reset_Handler, %function
Reset_Handler:
  ldr   r0, =_estack
 80005e8:	480d      	ldr	r0, [pc, #52]	@ (8000620 <LoopForever+0x2>)
  mov   sp, r0          /* set stack pointer */
 80005ea:	4685      	mov	sp, r0
/* Call the clock system initialization function.*/
  bl  SystemInit
 80005ec:	f3af 8000 	nop.w

/* Copy the data segment initializers from flash to SRAM */
  ldr r0, =_sdata
 80005f0:	480c      	ldr	r0, [pc, #48]	@ (8000624 <LoopForever+0x6>)
  ldr r1, =_edata
 80005f2:	490d      	ldr	r1, [pc, #52]	@ (8000628 <LoopForever+0xa>)
  ldr r2, =_sidata
 80005f4:	4a0d      	ldr	r2, [pc, #52]	@ (800062c <LoopForever+0xe>)
  movs r3, #0
 80005f6:	2300      	movs	r3, #0
  b LoopCopyDataInit
 80005f8:	e002      	b.n	8000600 <LoopCopyDataInit>

080005fa <CopyDataInit>:

CopyDataInit:
  ldr r4, [r2, r3]
 80005fa:	58d4      	ldr	r4, [r2, r3]
  str r4, [r0, r3]
 80005fc:	50c4      	str	r4, [r0, r3]
  adds r3, r3, #4
 80005fe:	3304      	adds	r3, #4

08000600 <LoopCopyDataInit>:

LoopCopyDataInit:
  adds r4, r0, r3
 8000600:	18c4      	adds	r4, r0, r3
  cmp r4, r1
 8000602:	428c      	cmp	r4, r1
  bcc CopyDataInit
 8000604:	d3f9      	bcc.n	80005fa <CopyDataInit>

/* Zero fill the bss segment. */
  ldr r2, =_sbss
 8000606:	4a0a      	ldr	r2, [pc, #40]	@ (8000630 <LoopForever+0x12>)
  ldr r4, =_ebss
 8000608:	4c0a      	ldr	r4, [pc, #40]	@ (8000634 <LoopForever+0x16>)
  movs r3, #0
 800060a:	2300      	movs	r3, #0
  b LoopFillZerobss
 800060c:	e001      	b.n	8000612 <LoopFillZerobss>

0800060e <FillZerobss>:

FillZerobss:
  str  r3, [r2]
 800060e:	6013      	str	r3, [r2, #0]
  adds r2, r2, #4
 8000610:	3204      	adds	r2, #4

08000612 <LoopFillZerobss>:

LoopFillZerobss:
  cmp r2, r4
 8000612:	42a2      	cmp	r2, r4
  bcc FillZerobss
 8000614:	d3fb      	bcc.n	800060e <FillZerobss>


/* Call static constructors */
  bl __libc_init_array
 8000616:	f000 f811 	bl	800063c <__libc_init_array>
/* Call the application's entry point.*/

  bl main
 800061a:	f7ff feff 	bl	800041c <main>

0800061e <LoopForever>:

LoopForever:
  b LoopForever
 800061e:	e7fe      	b.n	800061e <LoopForever>
  ldr   r0, =_estack
 8000620:	2000a000 	.word	0x2000a000
  ldr r0, =_sdata
 8000624:	20000000 	.word	0x20000000
  ldr r1, =_edata
 8000628:	20000000 	.word	0x20000000
  ldr r2, =_sidata
 800062c:	080006a4 	.word	0x080006a4
  ldr r2, =_sbss
 8000630:	20000000 	.word	0x20000000
  ldr r4, =_ebss
 8000634:	2000002c 	.word	0x2000002c

08000638 <ADC1_2_IRQHandler>:
 * @retval : None
*/
  .section .text.Default_Handler,"ax",%progbits
Default_Handler:
Infinite_Loop:
  b Infinite_Loop
 8000638:	e7fe      	b.n	8000638 <ADC1_2_IRQHandler>
	...

0800063c <__libc_init_array>:
 800063c:	b570      	push	{r4, r5, r6, lr}
 800063e:	4b0d      	ldr	r3, [pc, #52]	@ (8000674 <__libc_init_array+0x38>)
 8000640:	4d0d      	ldr	r5, [pc, #52]	@ (8000678 <__libc_init_array+0x3c>)
 8000642:	1b5b      	subs	r3, r3, r5
 8000644:	109c      	asrs	r4, r3, #2
 8000646:	2600      	movs	r6, #0
 8000648:	42a6      	cmp	r6, r4
 800064a:	d109      	bne.n	8000660 <__libc_init_array+0x24>
 800064c:	f000 f81a 	bl	8000684 <_init>
 8000650:	4d0a      	ldr	r5, [pc, #40]	@ (800067c <__libc_init_array+0x40>)
 8000652:	4b0b      	ldr	r3, [pc, #44]	@ (8000680 <__libc_init_array+0x44>)
 8000654:	1b5b      	subs	r3, r3, r5
 8000656:	109c      	asrs	r4, r3, #2
 8000658:	2600      	movs	r6, #0
 800065a:	42a6      	cmp	r6, r4
 800065c:	d105      	bne.n	800066a <__libc_init_array+0x2e>
 800065e:	bd70      	pop	{r4, r5, r6, pc}
 8000660:	f855 3b04 	ldr.w	r3, [r5], #4
 8000664:	4798      	blx	r3
 8000666:	3601      	adds	r6, #1
 8000668:	e7ee      	b.n	8000648 <__libc_init_array+0xc>
 800066a:	f855 3b04 	ldr.w	r3, [r5], #4
 800066e:	4798      	blx	r3
 8000670:	3601      	adds	r6, #1
 8000672:	e7f2      	b.n	800065a <__libc_init_array+0x1e>
 8000674:	0800069c 	.word	0x0800069c
 8000678:	0800069c 	.word	0x0800069c
 800067c:	0800069c 	.word	0x0800069c
 8000680:	080006a0 	.word	0x080006a0

08000684 <_init>:
 8000684:	b5f8      	push	{r3, r4, r5, r6, r7, lr}
 8000686:	bf00      	nop
 8000688:	bcf8      	pop	{r3, r4, r5, r6, r7}
 800068a:	bc08      	pop	{r3}
 800068c:	469e      	mov	lr, r3
 800068e:	4770      	bx	lr

08000690 <_fini>:
 8000690:	b5f8      	push	{r3, r4, r5, r6, r7, lr}
 8000692:	bf00      	nop
 8000694:	bcf8      	pop	{r3, r4, r5, r6, r7}
 8000696:	bc08      	pop	{r3}
 8000698:	469e      	mov	lr, r3
 800069a:	4770      	bx	lr
